(dp1
S'output'
p2
S'The "end" tag is unmatched, please check if you have a starting "block" tag'
p3
sS'layer'
p4
S"'layout.html'"
p5
sS'code'
p6
S'<!DOCTYPE html>\n<!--[if (gt IE 9)|!(IE)]><!--> <html class="no-js" lang="{{=T.accepted_language or \'en\'}}"> <!--<![endif]-->\n  <head>\n    <meta charset="utf-8">\n    <!-- www.phpied.com/conditional-comments-block-downloads/ -->\n    <!-- Always force latest IE rendering engine\n         (even in intranet) & Chrome Frame\n         Remove this if you use the .htaccess -->\n    <meta http-equiv="X-UA-Compatible" content="IE=edge{{=not request.is_local and \',chrome=1\' or \'\'}}">\n    <!--  Mobile Viewport Fix\n          j.mp/mobileviewport & davidbcalhoun.com/2010/viewport-metatag\n          device-width: Occupy full width of the screen in its current orientation\n          initial-scale = 1.0 retains dimensions instead of zooming out if page height > device height\n          user-scalable = yes allows the user to zoom in -->\n    <meta name="viewport" content="width=device-width, initial-scale=1.0">\n    <title>{{=response.title or request.application}}</title>\n    <!-- http://dev.w3.org/html5/markup/meta.name.html -->\n    <meta name="application-name" content="{{=request.application}}">\n    <!-- Speaking of Google, don\'t forget to set your site up:\n         http://google.com/webmasters -->\n    <meta name="google-site-verification" content="">\n    <!-- include stylesheets -->\n    <link rel="stylesheet" href="{{=URL(\'static\',\'css/bootstrap.min.css\')}}"/>\n    <link rel="stylesheet" href="{{=URL(\'static\',\'css/web2py-bootstrap3.css\')}}"/>\n    <link rel="shortcut icon" href="{{=URL(\'static\',\'images/favicon.ico\')}}" type="image/x-icon">\n    <link rel="apple-touch-icon" href="{{=URL(\'static\',\'images/favicon.png\')}}">\n    <!-- All JavaScript at the bottom, except for Modernizr which enables\n         HTML5 elements & feature detects -->\n    <script src="{{=URL(\'static\',\'js/modernizr-2.8.3.min.js\')}}"></script>\n    <!--[if lt IE 9]>\n        <script src="{{=URL(\'static\',\'js/respond-1.4.2.min.js\')}}"></script>\n        <![endif]-->\n    <!-- Favicons -->\n    {{include \'web2py_ajax.html\'}} <!-- this includes jquery.js, calendar.js/.css and web2py.js -->\n    {{block head}}{{end}}\n    {{\n    # using sidebars need to know what sidebar you want to use\n    mc0 = \'col-md-12\'\n    mc1 = \'col-md-9\'\n    mc2 = \'col-md-6\'\n    left_sidebar_enabled = globals().get(\'left_sidebar_enabled\', False)\n    right_sidebar_enabled = globals().get(\'right_sidebar_enabled\', False)\n    middle_column = {0: mc0, 1: mc1, 2: mc2}[\n    (left_sidebar_enabled and 1 or 0)+(right_sidebar_enabled and 1 or 0)]\n    }}\n  </head>\n  <body>\n    <!--[if lt IE 8]><p class="browserupgrade">You are using an <strong>outdated</strong> browser. Please <a href="http://browsehappy.com/">upgrade your browser</a> to improve your experience.</p><![endif]-->\n    <div class="w2p_flash alert alert-dismissable">{{=response.flash or \'\'}}</div>\n    <!-- Navbar ======================================= -->\n    <nav class="navbar navbar-default navbar-fixed-top" role="navigation">\n      <div class="container-fluid">\n        <div class="navbar-header">\n          <button type="button" class="navbar-toggle" data-toggle="collapse" data-target=".navbar-collapse">\n            <span class="sr-only">Toggle navigation</span>\n            <span class="icon-bar"></span>\n            <span class="icon-bar"></span>\n            <span class="icon-bar"></span>\n          </button>\n          {{response.logo or \'\'}}\n        </div>\n        <div class="collapse navbar-collapse navbar-ex1-collapse">\n          <ul class="nav navbar-nav navbar-right">\n              {{if \'auth\' in globals():}}\n            {{=auth.navbar(\'Welcome\',mode=\'dropdown\')}}\n              {{else:}}\n              {{=\'\'}}\n              {{pass}}\n          </ul>\n          {{if response.subtitle:}}\n          {{=MENU(response.menu, _class=\'nav navbar-nav\',li_class=\'dropdown\',ul_class=\'dropdown-menu\')}}\n          {{=response.subtitle}}\n          {{pass}}\n        </div>\n      </div>\n    </nav>\n    <!-- Masthead ===================================== -->    \n    {{block header}}\n    {{end}}\n    <!-- Main ========================================= -->\n    <!-- Begin page content -->\n    <div class="container-fluid main-container">\n      {{if left_sidebar_enabled:}}\n        <div class="col-md-3 left-sidebar">\n            {{block left_sidebar}}\n            <h3>Left Sidebar</h3>\n            <p></p>\n            {{end}}\n        </div>\n      {{pass}}\n\n      <div class="{{=middle_column}}">\n        \n        {{end}}\n      </div>\n\n      {{if right_sidebar_enabled:}}\n        <div class="col-md-3">\n            {{block right_sidebar}}\n            <h3>Right Sidebar</h3>\n            <p></p>\n            {{end}}\n        </div>\n      {{pass}}\n\n    </div>\n\n    {{block footer}} <!-- this is default footer -->      \n    <footer class="footer">\n      <div class="container-fluid">\n        <div class="copyright pull-left">{{=T(\'Copyright\')}} &#169; {{=request.now.year}}</div>\n      </div>\n    </footer>\n    {{end}}\n    <!-- The javascript =============================== -->\n    <script src="{{=URL(\'static\',\'js/bootstrap.min.js\')}}"></script>\n    <script src="{{=URL(\'static\',\'js/web2py-bootstrap3.js\')}}"></script>\n    {{block page_js}}{{end page_js}}\n    {{if response.google_analytics_id:}}\n    <!-- Analytics ==================================== -->\n    <script src="{{=URL(\'static\',\'js/analytics.min.js\')}}"></script>\n    <script type="text/javascript">\n      analytics.initialize({\n      \'Google Analytics\':{trackingId:\'{{=response.google_analytics_id}}\'}\n      });\n    </script>\n    {{pass}}\n    <!-- Share ============================y============ -->\n    <!--script src="{{=URL(\'static\',\'js/share.js\',vars=dict(static=URL(\'static\',\'images\')))}}"></script--!>\n  </body>\n</html>\n'
p7
sS'snapshot'
p8
(dp9
S'exception'
p10
(dp11
S'__module__'
p12
S"'gluon.rocket'"
p13
sS'__getslice__'
p14
S"<method-wrapper '__getslice__' of SocketTimeout object>"
p15
sS'__str__'
p16
S"<method-wrapper '__str__' of SocketTimeout object>"
p17
sS'__reduce__'
p18
S'<built-in method __reduce__ of SocketTimeout object>'
p19
sS'__dict__'
p20
S'{}'
p21
sS'__sizeof__'
p22
S'<built-in method __sizeof__ of SocketTimeout object>'
p23
sS'__weakref__'
p24
S'None'
p25
sS'__init__'
p26
S"<method-wrapper '__init__' of SocketTimeout object>"
p27
sS'__setattr__'
p28
S"<method-wrapper '__setattr__' of SocketTimeout object>"
p29
sS'__reduce_ex__'
p30
S'<built-in method __reduce_ex__ of SocketTimeout object>'
p31
sS'__new__'
p32
S'<built-in method __new__ of type object>'
p33
sS'__format__'
p34
S'<built-in method __format__ of SocketTimeout object>'
p35
sS'__class__'
p36
S"<class 'gluon.rocket.SocketTimeout'>"
p37
sS'__doc__'
p38
S"'Exception for when a socket times out between requests.'"
p39
sS'__getitem__'
p40
S"<method-wrapper '__getitem__' of SocketTimeout object>"
p41
sS'__setstate__'
p42
S'<built-in method __setstate__ of SocketTimeout object>'
p43
sS'__getattribute__'
p44
S"<method-wrapper '__getattribute__' of SocketTimeout object>"
p45
sS'args'
p46
S"('Socket timed out before request.',)"
p47
sS'__subclasshook__'
p48
S'<built-in method __subclasshook__ of type object>'
p49
sS'__unicode__'
p50
S'<built-in method __unicode__ of SocketTimeout object>'
p51
sS'__delattr__'
p52
S"<method-wrapper '__delattr__' of SocketTimeout object>"
p53
sS'__repr__'
p54
S"<method-wrapper '__repr__' of SocketTimeout object>"
p55
sS'__hash__'
p56
S"<method-wrapper '__hash__' of SocketTimeout object>"
p57
ssS'evalue'
p58
S'Socket timed out before request.'
p59
sS'frames'
p60
(lp61
(dp62
S'file'
p63
S'/Users/pawankp/Downloads/web2py/web2py.app/Contents/Resources/gluon/rocket.py'
p64
sS'dump'
p65
(dp66
sS'lnum'
p67
I1337
sS'lines'
p68
(dp69
I1332
S'            # Enter connection serve loop'
p70
sI1333
S'            while True:'
p71
sI1334
S'                if __debug__:'
p72
sI1335
S"                    self.err_log.debug('Serving a request')"
p73
sI1336
S'                try:'
p74
sI1337
S'                    self.run_app(conn)'
p75
sI1338
S'                except:'
p76
sI1339
S'                    exc = sys.exc_info()'
p77
sI1340
S'                    handled = self._handleError(*exc)'
p78
sI1341
S'                    if handled:'
p79
ssS'call'
p80
S'(self=<WSGIWorker(Thread-4, started daemon 123145324646400)>)'
p81
sS'func'
p82
S'run'
p83
sa(dp84
g63
S'/Users/pawankp/Downloads/web2py/web2py.app/Contents/Resources/gluon/rocket.py'
p85
sg65
(dp86
sg67
I1830
sg68
(dp87
I1825
S'        else:'
p88
sI1826
S'            sock_file = conn.makefile(BUF_SIZE)'
p89
sI1827
S''
sI1828
S'        try:'
p90
sI1829
S'            # Read the headers and build our WSGI environment'
p91
sI1830
S'            self.environ = environ = self.build_environ(sock_file, conn)'
p92
sI1831
S''
sI1832
S'            # Handle 100 Continue'
p93
sI1833
S"            if environ.get('HTTP_EXPECT', '') == '100-continue':"
p94
sI1834
S"                res = environ['SERVER_PROTOCOL'] + ' 100 Continue\\r\\n\\r\\n'"
p95
ssg80
S'(self=<WSGIWorker(Thread-4, started daemon 123145324646400)>, conn=<gluon.rocket.Connection object>)'
p96
sg82
S'run_app'
p97
sa(dp98
g63
S'/Users/pawankp/Downloads/web2py/web2py.app/Contents/Resources/gluon/rocket.py'
p99
sg65
(dp100
sg67
I1650
sg68
(dp101
I1645
S'                                      "wsgiorg.futures": executor.futures})'
p102
sI1646
S''
sI1647
S'    def build_environ(self, sock_file, conn):'
p103
sI1648
S'        """ Build the execution environment. """'
p104
sI1649
S'        # Grab the request line'
p105
sI1650
S'        request = self.read_request_line(sock_file)'
p106
sI1651
S''
sI1652
S'        # Copy the Base Environment'
p107
sI1653
S'        environ = self.base_environ.copy()'
p108
sI1654
S''
ssg80
S'(self=<WSGIWorker(Thread-4, started daemon 123145324646400)>, sock_file=<socket._fileobject object>, conn=<gluon.rocket.Connection object>)'
p109
sg82
S'build_environ'
p110
sa(dp111
g63
S'/Users/pawankp/Downloads/web2py/web2py.app/Contents/Resources/gluon/rocket.py'
p112
sg65
(dp113
sg67
I1401
sg68
(dp114
I1396
S''
sI1397
S'                d = sock_file.readline()'
p115
sI1398
S'                if PY3K:'
p116
sI1399
S"                    d = d.decode('ISO-8859-1')"
p117
sI1400
S'        except socket.timeout:'
p118
sI1401
S"            raise SocketTimeout('Socket timed out before request.')"
p119
sI1402
S'        except TypeError:'
p120
sI1403
S'            raise SocketClosed('
p121
sI1404
S"                'SSL bug caused closure of socket.  See '"
p122
sI1405
S'                \'"https://groups.google.com/d/topic/web2py/P_Gw0JxWzCs".\')'
p123
ssg80
S'(self=<WSGIWorker(Thread-4, started daemon 123145324646400)>, sock_file=<socket._fileobject object>)'
p124
sg82
S'read_request_line'
p125
sasS'pyver'
p126
S'Python 2.7.3: /Users/pawankp/Downloads/web2py/web2py.app/Contents/MacOS/python (prefix: /Users/pawankp/Downloads/web2py/web2py.app/Contents/Resources)'
p127
sS'etype'
p128
S"<class 'gluon.rocket.SocketTimeout'>"
p129
sS'date'
p130
S'Mon Nov  7 17:23:40 2016'
p131
sS'locals'
p132
(dp133
S'sock_file'
p134
S'<socket._fileobject object>'
p135
sS'self'
p136
S'<WSGIWorker(Thread-4, started daemon 123145324646400)>'
p137
sssS'traceback'
p138
S'Traceback (most recent call last):\n  File "/Users/pawankp/Downloads/web2py/web2py.app/Contents/Resources/gluon/rocket.py", line 1337, in run\n  File "/Users/pawankp/Downloads/web2py/web2py.app/Contents/Resources/gluon/rocket.py", line 1830, in run_app\n  File "/Users/pawankp/Downloads/web2py/web2py.app/Contents/Resources/gluon/rocket.py", line 1650, in build_environ\n  File "/Users/pawankp/Downloads/web2py/web2py.app/Contents/Resources/gluon/rocket.py", line 1401, in read_request_line\nSocketTimeout: Socket timed out before request.\n'
p139
s.